; Function Attrs: mustprogress nofree norecurse nosync nounwind willreturn memory(argmem: readwrite) uwtable
define void @_ZN3gmx20SelectionParserValueC2E12e_selvalue_tRKNS_17SelectionLocationE(ptr noundef nonnull align 8 dereferenceable(76) initializes((0, 4), (8, 24)) %0, i32 noundef %1, ptr noundef nonnull readonly align 4 captures(none) dereferenceable(8) %2) unnamed_addr #10 align 2 personality ptr @__gxx_personality_v0 {
  store i32 %1, ptr %0, align 8, !tbaa !19
  %4 = getelementptr inbounds nuw i8, ptr %0, i64 8
  tail call void @llvm.memset.p0.i64(ptr noundef nonnull align 8 dereferenceable(16) %4, i8 0, i64 16, i1 false)
  %5 = getelementptr inbounds nuw i8, ptr %0, i64 24
  %6 = getelementptr inbounds nuw i8, ptr %0, i64 40
  store ptr %6, ptr %5, align 8, !tbaa !29
  %7 = getelementptr inbounds nuw i8, ptr %0, i64 32
  store i64 0, ptr %7, align 8, !tbaa !15
  store i8 0, ptr %6, align 8, !tbaa !16
  %8 = getelementptr inbounds nuw i8, ptr %0, i64 68
  %9 = load i64, ptr %2, align 4
  store i64 %9, ptr %8, align 4
  %10 = getelementptr inbounds nuw i8, ptr %0, i64 56
  tail call void @llvm.memset.p0.i64(ptr noundef nonnull align 8 dereferenceable(12) %10, i8 0, i64 12, i1 false)
  ret void
}